; Function Attrs: nounwind uwtable
define hidden void @_glfwMaximizeWindowWayland(ptr noundef captures(none) %0) local_unnamed_addr #0 {
  %2 = getelementptr inbounds nuw i8, ptr %0, i64 984
  %3 = load ptr, ptr %2, align 8, !tbaa !160
  %.not = icmp eq ptr %3, null
  br i1 %.not, label %6, label %4

4:                                                ; preds = %1
  %5 = load ptr, ptr getelementptr inbounds nuw (i8, ptr @_glfw, i64 137760), align 8, !tbaa !227
  tail call void %5(ptr noundef nonnull %3) #20
  br label %16

6:                                                ; preds = %1
  %7 = getelementptr inbounds nuw i8, ptr %0, i64 960
  %8 = load ptr, ptr %7, align 8, !tbaa !235
  %.not6 = icmp eq ptr %8, null
  br i1 %.not6, label %14, label %9

9:                                                ; preds = %6
  %10 = load ptr, ptr getelementptr inbounds nuw (i8, ptr @_glfw, i64 137528), align 8, !tbaa !136
  %11 = load ptr, ptr getelementptr inbounds nuw (i8, ptr @_glfw, i64 137520), align 8, !tbaa !93
  %12 = tail call i32 %11(ptr noundef nonnull %8) #20
  %13 = tail call ptr (ptr, i32, ptr, i32, i32, ...) %10(ptr noundef nonnull %8, i32 noundef 9, ptr noundef null, i32 noundef %12, i32 noundef 0) #20
  br label %16

14:                                               ; preds = %6
  %15 = getelementptr inbounds nuw i8, ptr %0, i64 876
  store i32 1, ptr %15, align 4, !tbaa !150
  br label %16

16:                                               ; preds = %9, %14, %4
  ret void
}